target datalayout = "e-m:e-p270:32:32-p271:32:32-p272:64:64-i64:64-i128:128-f80:128-n8:16:32:64-S128"
target triple = "x86_64-pc-linux-gnu"

; Function Attrs: inlinehint nounwind uwtable
define internal i32 @Abc_Base2Log(i32 noundef %0) #2 {
  %2 = alloca i32, align 4
  %3 = alloca i32, align 4
  %4 = alloca i32, align 4
  %5 = alloca i32, align 4
  store i32 %0, ptr %3, align 4, !tbaa !8
  call void @llvm.lifetime.start.p0(i64 4, ptr %4) #12
  %6 = load i32, ptr %3, align 4, !tbaa !8
  %7 = icmp ult i32 %6, 2
  br i1 %7, label %8, label %10

8:                                                ; preds = %1
  %9 = load i32, ptr %3, align 4, !tbaa !8
  store i32 %9, ptr %2, align 4
  store i32 1, ptr %5, align 4
  br label %24

10:                                               ; preds = %1
  store i32 0, ptr %4, align 4, !tbaa !8
  %11 = load i32, ptr %3, align 4, !tbaa !8
  %12 = add i32 %11, -1
  store i32 %12, ptr %3, align 4, !tbaa !8
  br label %13

13:                                               ; preds = %17, %10
  %14 = load i32, ptr %3, align 4, !tbaa !8
  %15 = icmp ne i32 %14, 0
  br i1 %15, label %16, label %22

16:                                               ; preds = %13
  br label %17

17:                                               ; preds = %16
  %18 = load i32, ptr %3, align 4, !tbaa !8
  %19 = lshr i32 %18, 1
  store i32 %19, ptr %3, align 4, !tbaa !8
  %20 = load i32, ptr %4, align 4, !tbaa !8
  %21 = add nsw i32 %20, 1
  store i32 %21, ptr %4, align 4, !tbaa !8
  br label %13, !llvm.loop !63

22:                                               ; preds = %13
  %23 = load i32, ptr %4, align 4, !tbaa !8
  store i32 %23, ptr %2, align 4
  store i32 1, ptr %5, align 4
  br label %24

24:                                               ; preds = %22, %8
  call void @llvm.lifetime.end.p0(i64 4, ptr %4) #12
  %25 = load i32, ptr %2, align 4
  ret i32 %25
}

; Function Attrs: nounwind uwtable
define void @Wlc_BlastAdderFast(ptr noundef %0, ptr noundef %1, ptr noundef %2, i32 noundef %3, i32 noundef %4, i32 noundef %5) #0 {
  %7 = alloca ptr, align 8
  %8 = alloca ptr, align 8
  %9 = alloca ptr, align 8
  %10 = alloca i32, align 4
  %11 = alloca i32, align 4
  %12 = alloca i32, align 4
  %13 = alloca i32, align 4
  %14 = alloca i32, align 4
  %15 = alloca ptr, align 8
  %16 = alloca ptr, align 8
  store ptr %0, ptr %7, align 8, !tbaa !38
  store ptr %1, ptr %8, align 8, !tbaa !3
  store ptr %2, ptr %9, align 8, !tbaa !3
  store i32 %3, ptr %10, align 4, !tbaa !8
  store i32 %4, ptr %11, align 4, !tbaa !8
  store i32 %5, ptr %12, align 4, !tbaa !8
  call void @llvm.lifetime.start.p0(i64 4, ptr %13) #12
  call void @llvm.lifetime.start.p0(i64 4, ptr %14) #12
  %17 = load i32, ptr %10, align 4, !tbaa !8
  %18 = call i32 @Abc_Base2Log(i32 noundef %17)
  store i32 %18, ptr %14, align 4, !tbaa !8
  call void @llvm.lifetime.start.p0(i64 8, ptr %15) #12
  %19 = load i32, ptr %14, align 4, !tbaa !8
  %20 = shl i32 1, %19
  %21 = add nsw i32 %20, 1
  %22 = sext i32 %21 to i64
  %23 = call noalias ptr @calloc(i64 noundef %22, i64 noundef 4) #15
  store ptr %23, ptr %15, align 8, !tbaa !3
  call void @llvm.lifetime.start.p0(i64 8, ptr %16) #12
  %24 = load i32, ptr %14, align 4, !tbaa !8
  %25 = shl i32 1, %24
  %26 = add nsw i32 %25, 1
  %27 = sext i32 %26 to i64
  %28 = call noalias ptr @calloc(i64 noundef %27, i64 noundef 4) #15
  store ptr %28, ptr %16, align 8, !tbaa !3
  store i32 0, ptr %13, align 4, !tbaa !8
  br label %29

29:                                               ; preds = %52, %6
  %30 = load i32, ptr %13, align 4, !tbaa !8
  %31 = load i32, ptr %10, align 4, !tbaa !8
  %32 = icmp slt i32 %30, %31
  br i1 %32, label %33, label %55

33:                                               ; preds = %29
  %34 = load ptr, ptr %8, align 8, !tbaa !3
  %35 = load i32, ptr %13, align 4, !tbaa !8
  %36 = sext i32 %35 to i64
  %37 = getelementptr inbounds i32, ptr %34, i64 %36
  %38 = load i32, ptr %37, align 4, !tbaa !8
  %39 = load ptr, ptr %15, align 8, !tbaa !3
  %40 = load i32, ptr %13, align 4, !tbaa !8
  %41 = sext i32 %40 to i64
  %42 = getelementptr inbounds i32, ptr %39, i64 %41
  store i32 %38, ptr %42, align 4, !tbaa !8
  %43 = load ptr, ptr %9, align 8, !tbaa !3
  %44 = load i32, ptr %13, align 4, !tbaa !8
  %45 = sext i32 %44 to i64
  %46 = getelementptr inbounds i32, ptr %43, i64 %45
  %47 = load i32, ptr %46, align 4, !tbaa !8
  %48 = load ptr, ptr %16, align 8, !tbaa !3
  %49 = load i32, ptr %13, align 4, !tbaa !8
  %50 = sext i32 %49 to i64
  %51 = getelementptr inbounds i32, ptr %48, i64 %50
  store i32 %47, ptr %51, align 4, !tbaa !8
  br label %52

52:                                               ; preds = %33
  %53 = load i32, ptr %13, align 4, !tbaa !8
  %54 = add nsw i32 %53, 1
  store i32 %54, ptr %13, align 4, !tbaa !8
  br label %29, !llvm.loop !90

55:                                               ; preds = %29
  br label %56

56:                                               ; preds = %94, %55
  %57 = load i32, ptr %13, align 4, !tbaa !8
  %58 = load i32, ptr %14, align 4, !tbaa !8
  %59 = shl i32 1, %58
  %60 = icmp slt i32 %57, %59
  br i1 %60, label %61, label %97

61:                                               ; preds = %56
  %62 = load i32, ptr %11, align 4, !tbaa !8
  %63 = icmp ne i32 %62, 0
  br i1 %63, label %64, label %71

64:                                               ; preds = %61
  %65 = load ptr, ptr %8, align 8, !tbaa !3
  %66 = load i32, ptr %10, align 4, !tbaa !8
  %67 = sub nsw i32 %66, 1
  %68 = sext i32 %67 to i64
  %69 = getelementptr inbounds i32, ptr %65, i64 %68
  %70 = load i32, ptr %69, align 4, !tbaa !8
  br label %72

71:                                               ; preds = %61
  br label %72

72:                                               ; preds = %71, %64
  %73 = phi i32 [ %70, %64 ], [ 0, %71 ]
  %74 = load ptr, ptr %15, align 8, !tbaa !3
  %75 = load i32, ptr %13, align 4, !tbaa !8
  %76 = sext i32 %75 to i64
  %77 = getelementptr inbounds i32, ptr %74, i64 %76
  store i32 %73, ptr %77, align 4, !tbaa !8
  %78 = load i32, ptr %11, align 4, !tbaa !8
  %79 = icmp ne i32 %78, 0
  br i1 %79, label %80, label %87

80:                                               ; preds = %72
  %81 = load ptr, ptr %9, align 8, !tbaa !3
  %82 = load i32, ptr %10, align 4, !tbaa !8
  %83 = sub nsw i32 %82, 1
  %84 = sext i32 %83 to i64
  %85 = getelementptr inbounds i32, ptr %81, i64 %84
  %86 = load i32, ptr %85, align 4, !tbaa !8
  br label %88

87:                                               ; preds = %72
  br label %88

88:                                               ; preds = %87, %80
  %89 = phi i32 [ %86, %80 ], [ 0, %87 ]
  %90 = load ptr, ptr %16, align 8, !tbaa !3
  %91 = load i32, ptr %13, align 4, !tbaa !8
  %92 = sext i32 %91 to i64
  %93 = getelementptr inbounds i32, ptr %90, i64 %92
  store i32 %89, ptr %93, align 4, !tbaa !8
  br label %94

94:                                               ; preds = %88
  %95 = load i32, ptr %13, align 4, !tbaa !8
  %96 = add nsw i32 %95, 1
  store i32 %96, ptr %13, align 4, !tbaa !8
  br label %56, !llvm.loop !91

97:                                               ; preds = %56
  %98 = load ptr, ptr %7, align 8, !tbaa !38
  %99 = load ptr, ptr %15, align 8, !tbaa !3
  %100 = load ptr, ptr %16, align 8, !tbaa !3
  %101 = load i32, ptr %14, align 4, !tbaa !8
  %102 = load i32, ptr %12, align 4, !tbaa !8
  call void @Wlc_BlastAdderFast_int(ptr noundef %98, ptr noundef %99, ptr noundef %100, i32 noundef %101, i32 noundef %102)
  store i32 0, ptr %13, align 4, !tbaa !8
  br label %103

103:                                              ; preds = %117, %97
  %104 = load i32, ptr %13, align 4, !tbaa !8
  %105 = load i32, ptr %10, align 4, !tbaa !8
  %106 = icmp sle i32 %104, %105
  br i1 %106, label %107, label %120

107:                                              ; preds = %103
  %108 = load ptr, ptr %15, align 8, !tbaa !3
  %109 = load i32, ptr %13, align 4, !tbaa !8
  %110 = sext i32 %109 to i64
  %111 = getelementptr inbounds i32, ptr %108, i64 %110
  %112 = load i32, ptr %111, align 4, !tbaa !8
  %113 = load ptr, ptr %8, align 8, !tbaa !3
  %114 = load i32, ptr %13, align 4, !tbaa !8
  %115 = sext i32 %114 to i64
  %116 = getelementptr inbounds i32, ptr %113, i64 %115
  store i32 %112, ptr %116, align 4, !tbaa !8
  br label %117

117:                                              ; preds = %107
  %118 = load i32, ptr %13, align 4, !tbaa !8
  %119 = add nsw i32 %118, 1
  store i32 %119, ptr %13, align 4, !tbaa !8
  br label %103, !llvm.loop !92

120:                                              ; preds = %103
  %121 = load ptr, ptr %15, align 8, !tbaa !3
  %122 = icmp ne ptr %121, null
  br i1 %122, label %123, label %125

123:                                              ; preds = %120
  %124 = load ptr, ptr %15, align 8, !tbaa !3
  call void @free(ptr noundef %124) #12
  store ptr null, ptr %15, align 8, !tbaa !3
  br label %126

125:                                              ; preds = %120
  br label %126

126:                                              ; preds = %125, %123
  %127 = load ptr, ptr %16, align 8, !tbaa !3
  %128 = icmp ne ptr %127, null
  br i1 %128, label %129, label %131

129:                                              ; preds = %126
  %130 = load ptr, ptr %16, align 8, !tbaa !3
  call void @free(ptr noundef %130) #12
  store ptr null, ptr %16, align 8, !tbaa !3
  br label %132

131:                                              ; preds = %126
  br label %132

132:                                              ; preds = %131, %129
  call void @llvm.lifetime.end.p0(i64 8, ptr %16) #12
  call void @llvm.lifetime.end.p0(i64 8, ptr %15) #12
  call void @llvm.lifetime.end.p0(i64 4, ptr %14) #12
  call void @llvm.lifetime.end.p0(i64 4, ptr %13) #12
  ret void
}