; Function Attrs: nounwind uwtable
define void @Wlc_BlastAdderFast(ptr noundef %0, ptr noundef captures(none) %1, ptr noundef readonly captures(none) %2, i32 noundef %3, i32 noundef %4, i32 noundef %5) local_unnamed_addr #2 {
  %7 = icmp ult i32 %3, 2
  %8 = add i32 %3, -1
  %9 = tail call range(i32 0, 33) i32 @llvm.ctlz.i32(i32 %8, i1 true)
  %10 = sub nuw nsw i32 32, %9
  %.09.i = select i1 %7, i32 %3, i32 %10
  %11 = shl nuw i32 1, %.09.i
  %12 = add nuw nsw i32 %11, 1
  %13 = sext i32 %12 to i64
  %14 = tail call noalias ptr @calloc(i64 noundef %13, i64 noundef 4) #25
  %15 = tail call noalias ptr @calloc(i64 noundef %13, i64 noundef 4) #25
  %16 = icmp sgt i32 %3, 0
  br i1 %16, label %.lr.ph.preheader, label %.preheader

.lr.ph.preheader:                                 ; preds = %6
  %17 = zext nneg i32 %3 to i64
  %18 = shl nuw nsw i64 %17, 2
  tail call void @llvm.memcpy.p0.p0.i64(ptr align 4 %14, ptr align 4 %1, i64 %18, i1 false), !tbaa !3
  tail call void @llvm.memcpy.p0.p0.i64(ptr align 4 %15, ptr align 4 %2, i64 %18, i1 false), !tbaa !3
  br label %.preheader

.preheader:                                       ; preds = %.lr.ph.preheader, %6
  %.0.lcssa = phi i32 [ 0, %6 ], [ %3, %.lr.ph.preheader ]
  %19 = icmp slt i32 %.0.lcssa, %11
  br i1 %19, label %.lr.ph51, label %._crit_edge

.lr.ph51:                                         ; preds = %.preheader
  %.not46 = icmp eq i32 %4, 0
  br i1 %.not46, label %.thread.us.preheader, label %.lr.ph51.split

.thread.us.preheader:                             ; preds = %.lr.ph51
  %20 = zext nneg i32 %.0.lcssa to i64
  %21 = shl nuw nsw i64 %20, 2
  %scevgep = getelementptr i8, ptr %14, i64 %21
  %22 = xor i32 %.0.lcssa, -1
  %23 = add nsw i32 %11, %22
  %24 = zext i32 %23 to i64
  %25 = shl nuw nsw i64 %24, 2
  %26 = add nuw nsw i64 %25, 4
  tail call void @llvm.memset.p0.i64(ptr noundef nonnull align 4 dereferenceable(1) %scevgep, i8 0, i64 %26, i1 false), !tbaa !3
  %scevgep61 = getelementptr i8, ptr %15, i64 %21
  tail call void @llvm.memset.p0.i64(ptr noundef nonnull align 4 dereferenceable(1) %scevgep61, i8 0, i64 %26, i1 false), !tbaa !3
  br label %._crit_edge

.lr.ph51.split:                                   ; preds = %.lr.ph51
  %invariant.gep48 = getelementptr i8, ptr %2, i64 -4
  %27 = sext i32 %3 to i64
  %gep49 = getelementptr i32, ptr %invariant.gep48, i64 %27
  %invariant.gep = getelementptr i8, ptr %1, i64 -4
  %gep = getelementptr i32, ptr %invariant.gep, i64 %27
  %28 = load i32, ptr %gep, align 4, !tbaa !3
  %29 = load i32, ptr %gep49, align 4, !tbaa !3
  %30 = zext nneg i32 %.0.lcssa to i64
  %wide.trip.count60 = zext nneg i32 %11 to i64
  br label %31

31:                                               ; preds = %.lr.ph51.split, %31
  %indvars.iv = phi i64 [ %30, %.lr.ph51.split ], [ %indvars.iv.next, %31 ]
  %32 = getelementptr inbounds nuw i32, ptr %14, i64 %indvars.iv
  store i32 %28, ptr %32, align 4, !tbaa !3
  %33 = getelementptr inbounds nuw i32, ptr %15, i64 %indvars.iv
  store i32 %29, ptr %33, align 4, !tbaa !3
  %indvars.iv.next = add nuw nsw i64 %indvars.iv, 1
  %exitcond.not = icmp eq i64 %indvars.iv.next, %wide.trip.count60
  br i1 %exitcond.not, label %._crit_edge, label %31, !llvm.loop !78

._crit_edge:                                      ; preds = %31, %.thread.us.preheader, %.preheader
  tail call void @Wlc_BlastAdderFast_int(ptr noundef %0, ptr noundef %14, ptr noundef %15, i32 noundef %.09.i, i32 noundef %5)
  %.not52 = icmp slt i32 %3, 0
  br i1 %.not52, label %._crit_edge56, label %.lr.ph55.preheader

.lr.ph55.preheader:                               ; preds = %._crit_edge
  %34 = add nuw i32 %3, 1
  %35 = zext i32 %34 to i64
  %36 = shl nuw nsw i64 %35, 2
  tail call void @llvm.memcpy.p0.p0.i64(ptr noundef nonnull align 4 dereferenceable(1) %1, ptr noundef nonnull align 4 dereferenceable(1) %14, i64 %36, i1 false), !tbaa !3
  br label %._crit_edge56

._crit_edge56:                                    ; preds = %.lr.ph55.preheader, %._crit_edge
  %.not44 = icmp eq ptr %14, null
  br i1 %.not44, label %38, label %37

37:                                               ; preds = %._crit_edge56
  tail call void @free(ptr noundef nonnull %14) #23
  br label %38

38:                                               ; preds = %._crit_edge56, %37
  %.not45 = icmp eq ptr %15, null
  br i1 %.not45, label %40, label %39

39:                                               ; preds = %38
  tail call void @free(ptr noundef nonnull %15) #23
  br label %40

40:                                               ; preds = %38, %39
  ret void
}